target datalayout = "e-m:e-p270:32:32-p271:32:32-p272:64:64-i64:64-i128:128-f80:128-n8:16:32:64-S128"
target triple = "x86_64-pc-linux-gnu"

%struct.darktable_t = type { %struct.dt_codepath_t, i32, i32, ptr, ptr, ptr, ptr, ptr, ptr, ptr, ptr, ptr, ptr, ptr, ptr, ptr, ptr, ptr, ptr, ptr, ptr, ptr, ptr, ptr, ptr, ptr, ptr, ptr, ptr, ptr, [64 x %struct.dt_pthread_mutex_t], %struct.dt_pthread_mutex_t, %struct.dt_pthread_mutex_t, %struct.dt_pthread_mutex_t, %struct.dt_pthread_mutex_t, %struct.dt_pthread_mutex_t, ptr, ptr, ptr, ptr, ptr, ptr, ptr, ptr, ptr, ptr, ptr, ptr, ptr, %struct.dt_lua_state_t, ptr, double, ptr, i32, [47 x i32], i32, i32, ptr, ptr, %struct.dt_sys_resources_t, %struct.dt_backthumb_t, %struct.dt_gimp_t }
%struct.dt_codepath_t = type { i8, [3 x i8] }
%struct.dt_pthread_mutex_t = type { %union.pthread_mutex_t }
%union.pthread_mutex_t = type { %struct.__pthread_mutex_s }
%struct.__pthread_mutex_s = type { i32, i32, i32, i32, i32, i16, i16, %struct.__pthread_internal_list }
%struct.__pthread_internal_list = type { ptr, ptr }
%struct.dt_lua_state_t = type { i32 }
%struct.dt_sys_resources_t = type { i64, i64, ptr, ptr, i32 }
%struct.dt_backthumb_t = type { double, double, i32, i32, i32, i32 }
%struct.dt_gimp_t = type { i32, ptr, ptr, i32, i32 }
%struct.qoi_desc = type { i32, i32, i8, i8 }
%struct.dt_image_t = type { i32, i32, float, float, float, float, float, float, float, [64 x i8], [64 x i8], [128 x i8], [64 x i8], [64 x i8], [64 x i8], [64 x i8], i64, i32, %union.dt_image_correction_data_t, [64 x i8], [64 x i8], [64 x i8], [128 x i8], i32, [256 x i8], i32, i32, i32, i32, i32, i32, i32, i32, i32, i32, float, i32, i32, i32, i32, i32, i32, i64, i64, i64, i64, i32, [12 x i8], %struct.dt_iop_buffer_dsc_t, [9 x float], ptr, i32, i32, %struct.dt_image_raw_parameters_t, %struct.dt_image_geoloc_t, %struct._color_harmony_t, i16, [4 x i16], i32, i32, float, float, [4 x float], [4 x [3 x float]], [4 x float], ptr, ptr, i32, i32, [8 x i8] }
%union.dt_image_correction_data_t = type { %struct.anon.1 }
%struct.anon.1 = type { i32, float, [11 x float], [11 x float], [11 x float], [11 x float], [11 x float] }
%struct.dt_iop_buffer_dsc_t = type { i32, i32, i32, [6 x [6 x i8]], %struct.anon.4, [12 x i8], %struct.anon.5, [4 x float], i32, [12 x i8] }
%struct.anon.4 = type { i16, i16 }
%struct.anon.5 = type { i32, [12 x i8], [4 x float] }
%struct.dt_image_raw_parameters_t = type { i32 }
%struct.dt_image_geoloc_t = type { double, double, double }
%struct._color_harmony_t = type { i32, i32, i32 }

@.str = private unnamed_addr constant [3 x i8] c"rb\00", align 1
@darktable = external global %struct.darktable_t, align 8
@.str.1 = private unnamed_addr constant [41 x i8] c"[qoi_open] cannot open file for read: %s\00", align 1
@.str.2 = private unnamed_addr constant [49 x i8] c"[qoi_open] failed to allocate read buffer for %s\00", align 1
@.str.3 = private unnamed_addr constant [58 x i8] c"[qoi_open] failed to read entire file (%zu bytes) from %s\00", align 1
@.str.4 = private unnamed_addr constant [37 x i8] c"[qoi_open] failed to decode file: %s\00", align 1
@.str.5 = private unnamed_addr constant [53 x i8] c"[qoi_open] could not alloc full buffer for image: %s\00", align 1

; Function Attrs: nounwind uwtable
define i32 @dt_imageio_open_qoi(ptr noundef %0, ptr noundef %1, ptr noundef %2) #0 {
  %4 = alloca i32, align 4
  %5 = alloca ptr, align 8
  %6 = alloca ptr, align 8
  %7 = alloca ptr, align 8
  %8 = alloca ptr, align 8
  %9 = alloca i32, align 4
  %10 = alloca i64, align 8
  %11 = alloca ptr, align 8
  %12 = alloca %struct.qoi_desc, align 4
  %13 = alloca ptr, align 8
  %14 = alloca ptr, align 8
  %15 = alloca i64, align 8
  %16 = alloca i64, align 8
  store ptr %0, ptr %5, align 8, !tbaa !23
  store ptr %1, ptr %6, align 8, !tbaa !19
  store ptr %2, ptr %7, align 8, !tbaa !25
  call void @llvm.lifetime.start.p0(i64 8, ptr %8) #8
  %17 = load ptr, ptr %6, align 8, !tbaa !19
  %18 = call noalias ptr @fopen(ptr noundef %17, ptr noundef @.str)
  store ptr %18, ptr %8, align 8, !tbaa !27
  %19 = load ptr, ptr %8, align 8, !tbaa !27
  %20 = icmp ne ptr %19, null
  br i1 %20, label %32, label %21

21:                                               ; preds = %3
  br label %22

22:                                               ; preds = %21
  %23 = load i32, ptr getelementptr inbounds nuw (%struct.darktable_t, ptr @darktable, i32 0, i32 2), align 8, !tbaa !29
  %24 = xor i32 %23, -1
  %25 = and i32 0, %24
  %26 = icmp ne i32 %25, 0
  br i1 %26, label %29, label %27

27:                                               ; preds = %22
  %28 = load ptr, ptr %6, align 8, !tbaa !19
  call void (ptr, ...) @dt_print_ext(ptr noundef @.str.1, ptr noundef %28)
  br label %29

29:                                               ; preds = %27, %22
  br label %30

30:                                               ; preds = %29
  br label %31

31:                                               ; preds = %30
  store i32 1, ptr %4, align 4
  store i32 1, ptr %9, align 4
  br label %189

32:                                               ; preds = %3
  %33 = load ptr, ptr %8, align 8, !tbaa !27
  %34 = call i32 @fseek(ptr noundef %33, i64 noundef 0, i32 noundef 2)
  call void @llvm.lifetime.start.p0(i64 8, ptr %10) #8
  %35 = load ptr, ptr %8, align 8, !tbaa !27
  %36 = call i64 @ftell(ptr noundef %35)
  store i64 %36, ptr %10, align 8, !tbaa !65
  %37 = load ptr, ptr %8, align 8, !tbaa !27
  call void @rewind(ptr noundef %37)
  call void @llvm.lifetime.start.p0(i64 8, ptr %11) #8
  %38 = load i64, ptr %10, align 8, !tbaa !65
  %39 = call noalias ptr @g_try_malloc(i64 noundef %38) #10
  store ptr %39, ptr %11, align 8, !tbaa !6
  %40 = load ptr, ptr %11, align 8, !tbaa !6
  %41 = icmp ne ptr %40, null
  br i1 %41, label %55, label %42

42:                                               ; preds = %32
  %43 = load ptr, ptr %8, align 8, !tbaa !27
  %44 = call i32 @fclose(ptr noundef %43)
  br label %45

45:                                               ; preds = %42
  %46 = load i32, ptr getelementptr inbounds nuw (%struct.darktable_t, ptr @darktable, i32 0, i32 2), align 8, !tbaa !29
  %47 = xor i32 %46, -1
  %48 = and i32 0, %47
  %49 = icmp ne i32 %48, 0
  br i1 %49, label %52, label %50

50:                                               ; preds = %45
  %51 = load ptr, ptr %6, align 8, !tbaa !19
  call void (ptr, ...) @dt_print_ext(ptr noundef @.str.2, ptr noundef %51)
  br label %52

52:                                               ; preds = %50, %45
  br label %53

53:                                               ; preds = %52
  br label %54

54:                                               ; preds = %53
  store i32 2, ptr %4, align 4
  store i32 1, ptr %9, align 4
  br label %188

55:                                               ; preds = %32
  %56 = load ptr, ptr %11, align 8, !tbaa !6
  %57 = load i64, ptr %10, align 8, !tbaa !65
  %58 = load ptr, ptr %8, align 8, !tbaa !27
  %59 = call i64 @fread(ptr noundef %56, i64 noundef 1, i64 noundef %57, ptr noundef %58)
  %60 = load i64, ptr %10, align 8, !tbaa !65
  %61 = icmp ne i64 %59, %60
  br i1 %61, label %62, label %77

62:                                               ; preds = %55
  %63 = load ptr, ptr %8, align 8, !tbaa !27
  %64 = call i32 @fclose(ptr noundef %63)
  %65 = load ptr, ptr %11, align 8, !tbaa !6
  call void @g_free(ptr noundef %65)
  br label %66

66:                                               ; preds = %62
  %67 = load i32, ptr getelementptr inbounds nuw (%struct.darktable_t, ptr @darktable, i32 0, i32 2), align 8, !tbaa !29
  %68 = xor i32 %67, -1
  %69 = and i32 0, %68
  %70 = icmp ne i32 %69, 0
  br i1 %70, label %74, label %71

71:                                               ; preds = %66
  %72 = load i64, ptr %10, align 8, !tbaa !65
  %73 = load ptr, ptr %6, align 8, !tbaa !19
  call void (ptr, ...) @dt_print_ext(ptr noundef @.str.3, i64 noundef %72, ptr noundef %73)
  br label %74

74:                                               ; preds = %71, %66
  br label %75

75:                                               ; preds = %74
  br label %76

76:                                               ; preds = %75
  store i32 7, ptr %4, align 4
  store i32 1, ptr %9, align 4
  br label %188

77:                                               ; preds = %55
  %78 = load ptr, ptr %8, align 8, !tbaa !27
  %79 = call i32 @fclose(ptr noundef %78)
  call void @llvm.lifetime.start.p0(i64 12, ptr %12) #8
  call void @llvm.lifetime.start.p0(i64 8, ptr %13) #8
  %80 = load ptr, ptr %11, align 8, !tbaa !6
  %81 = load i64, ptr %10, align 8, !tbaa !65
  %82 = trunc i64 %81 to i32
  %83 = call ptr @qoi_decode(ptr noundef %80, i32 noundef %82, ptr noundef %12, i32 noundef 4)
  store ptr %83, ptr %13, align 8, !tbaa !19
  %84 = load ptr, ptr %11, align 8, !tbaa !6
  call void @g_free(ptr noundef %84)
  %85 = load ptr, ptr %13, align 8, !tbaa !19
  %86 = icmp ne ptr %85, null
  br i1 %86, label %98, label %87

87:                                               ; preds = %77
  br label %88

88:                                               ; preds = %87
  %89 = load i32, ptr getelementptr inbounds nuw (%struct.darktable_t, ptr @darktable, i32 0, i32 2), align 8, !tbaa !29
  %90 = xor i32 %89, -1
  %91 = and i32 0, %90
  %92 = icmp ne i32 %91, 0
  br i1 %92, label %95, label %93

93:                                               ; preds = %88
  %94 = load ptr, ptr %6, align 8, !tbaa !19
  call void (ptr, ...) @dt_print_ext(ptr noundef @.str.4, ptr noundef %94)
  br label %95

95:                                               ; preds = %93, %88
  br label %96

96:                                               ; preds = %95
  br label %97

97:                                               ; preds = %96
  store i32 6, ptr %4, align 4
  store i32 1, ptr %9, align 4
  br label %187

98:                                               ; preds = %77
  %99 = getelementptr inbounds nuw %struct.qoi_desc, ptr %12, i32 0, i32 0
  %100 = load i32, ptr %99, align 4, !tbaa !12
  %101 = load ptr, ptr %5, align 8, !tbaa !23
  %102 = getelementptr inbounds nuw %struct.dt_image_t, ptr %101, i32 0, i32 25
  store i32 %100, ptr %102, align 4, !tbaa !66
  %103 = getelementptr inbounds nuw %struct.qoi_desc, ptr %12, i32 0, i32 1
  %104 = load i32, ptr %103, align 4, !tbaa !15
  %105 = load ptr, ptr %5, align 8, !tbaa !23
  %106 = getelementptr inbounds nuw %struct.dt_image_t, ptr %105, i32 0, i32 26
  store i32 %104, ptr %106, align 16, !tbaa !77
  %107 = load ptr, ptr %5, align 8, !tbaa !23
  %108 = getelementptr inbounds nuw %struct.dt_image_t, ptr %107, i32 0, i32 48
  %109 = getelementptr inbounds nuw %struct.dt_iop_buffer_dsc_t, ptr %108, i32 0, i32 0
  store i32 4, ptr %109, align 16, !tbaa !78
  %110 = load ptr, ptr %5, align 8, !tbaa !23
  %111 = getelementptr inbounds nuw %struct.dt_image_t, ptr %110, i32 0, i32 48
  %112 = getelementptr inbounds nuw %struct.dt_iop_buffer_dsc_t, ptr %111, i32 0, i32 1
  store i32 1, ptr %112, align 4, !tbaa !79
  call void @llvm.lifetime.start.p0(i64 8, ptr %14) #8
  %113 = load ptr, ptr %7, align 8, !tbaa !25
  %114 = load ptr, ptr %5, align 8, !tbaa !23
  %115 = call ptr @dt_mipmap_cache_alloc(ptr noundef %113, ptr noundef %114)
  store ptr %115, ptr %14, align 8, !tbaa !80
  %116 = load ptr, ptr %14, align 8, !tbaa !80
  %117 = icmp ne ptr %116, null
  br i1 %117, label %132, label %118

118:                                              ; preds = %98
  %119 = load ptr, ptr %13, align 8, !tbaa !19
  call void @free(ptr noundef %119) #8
  br label %120

120:                                              ; preds = %118
  %121 = load i32, ptr getelementptr inbounds nuw (%struct.darktable_t, ptr @darktable, i32 0, i32 2), align 8, !tbaa !29
  %122 = xor i32 %121, -1
  %123 = and i32 0, %122
  %124 = icmp ne i32 %123, 0
  br i1 %124, label %129, label %125

125:                                              ; preds = %120
  %126 = load ptr, ptr %5, align 8, !tbaa !23
  %127 = getelementptr inbounds nuw %struct.dt_image_t, ptr %126, i32 0, i32 24
  %128 = getelementptr inbounds [256 x i8], ptr %127, i64 0, i64 0
  call void (ptr, ...) @dt_print_ext(ptr noundef @.str.5, ptr noundef %128)
  br label %129

129:                                              ; preds = %125, %120
  br label %130

130:                                              ; preds = %129
  br label %131

131:                                              ; preds = %130
  store i32 8, ptr %4, align 4
  store i32 1, ptr %9, align 4
  br label %186

132:                                              ; preds = %98
  call void @llvm.lifetime.start.p0(i64 8, ptr %15) #8
  %133 = getelementptr inbounds nuw %struct.qoi_desc, ptr %12, i32 0, i32 0
  %134 = load i32, ptr %133, align 4, !tbaa !12
  %135 = zext i32 %134 to i64
  %136 = getelementptr inbounds nuw %struct.qoi_desc, ptr %12, i32 0, i32 1
  %137 = load i32, ptr %136, align 4, !tbaa !15
  %138 = zext i32 %137 to i64
  %139 = mul i64 %135, %138
  store i64 %139, ptr %15, align 8, !tbaa !65
  call void @llvm.lifetime.start.p0(i64 8, ptr %16) #8
  store i64 0, ptr %16, align 8, !tbaa !65
  br label %140

140:                                              ; preds = %157, %132
  %141 = load i64, ptr %16, align 8, !tbaa !65
  %142 = load i64, ptr %15, align 8, !tbaa !65
  %143 = mul i64 %142, 4
  %144 = icmp ult i64 %141, %143
  br i1 %144, label %146, label %145

145:                                              ; preds = %140
  store i32 12, ptr %9, align 4
  call void @llvm.lifetime.end.p0(i64 8, ptr %16) #8
  br label %160

146:                                              ; preds = %140
  %147 = load ptr, ptr %13, align 8, !tbaa !19
  %148 = load i64, ptr %16, align 8, !tbaa !65
  %149 = getelementptr inbounds nuw i8, ptr %147, i64 %148
  %150 = load i8, ptr %149, align 1, !tbaa !21
  %151 = zext i8 %150 to i32
  %152 = sitofp i32 %151 to float
  %153 = fdiv reassoc nsz arcp contract afn float %152, 2.550000e+02
  %154 = load ptr, ptr %14, align 8, !tbaa !80
  %155 = load i64, ptr %16, align 8, !tbaa !65
  %156 = getelementptr inbounds nuw float, ptr %154, i64 %155
  store float %153, ptr %156, align 4, !tbaa !82
  br label %157

157:                                              ; preds = %146
  %158 = load i64, ptr %16, align 8, !tbaa !65
  %159 = add i64 %158, 1
  store i64 %159, ptr %16, align 8, !tbaa !65
  br label %140

160:                                              ; preds = %145
  %161 = load ptr, ptr %5, align 8, !tbaa !23
  %162 = getelementptr inbounds nuw %struct.dt_image_t, ptr %161, i32 0, i32 48
  %163 = getelementptr inbounds nuw %struct.dt_iop_buffer_dsc_t, ptr %162, i32 0, i32 8
  store i32 2, ptr %163, align 16, !tbaa !83
  %164 = load ptr, ptr %5, align 8, !tbaa !23
  %165 = getelementptr inbounds nuw %struct.dt_image_t, ptr %164, i32 0, i32 48
  %166 = getelementptr inbounds nuw %struct.dt_iop_buffer_dsc_t, ptr %165, i32 0, i32 2
  store i32 0, ptr %166, align 8, !tbaa !84
  %167 = load ptr, ptr %5, align 8, !tbaa !23
  %168 = getelementptr inbounds nuw %struct.dt_image_t, ptr %167, i32 0, i32 37
  %169 = load i32, ptr %168, align 4, !tbaa !85
  %170 = and i32 %169, -65
  store i32 %170, ptr %168, align 4, !tbaa !85
  %171 = load ptr, ptr %5, align 8, !tbaa !23
  %172 = getelementptr inbounds nuw %struct.dt_image_t, ptr %171, i32 0, i32 37
  %173 = load i32, ptr %172, align 4, !tbaa !85
  %174 = and i32 %173, -131073
  store i32 %174, ptr %172, align 4, !tbaa !85
  %175 = load ptr, ptr %5, align 8, !tbaa !23
  %176 = getelementptr inbounds nuw %struct.dt_image_t, ptr %175, i32 0, i32 37
  %177 = load i32, ptr %176, align 4, !tbaa !85
  %178 = and i32 %177, -129
  store i32 %178, ptr %176, align 4, !tbaa !85
  %179 = load ptr, ptr %5, align 8, !tbaa !23
  %180 = getelementptr inbounds nuw %struct.dt_image_t, ptr %179, i32 0, i32 37
  %181 = load i32, ptr %180, align 4, !tbaa !85
  %182 = or i32 %181, 32
  store i32 %182, ptr %180, align 4, !tbaa !85
  %183 = load ptr, ptr %5, align 8, !tbaa !23
  %184 = getelementptr inbounds nuw %struct.dt_image_t, ptr %183, i32 0, i32 46
  store i32 17, ptr %184, align 16, !tbaa !86
  %185 = load ptr, ptr %13, align 8, !tbaa !19
  call void @free(ptr noundef %185) #8
  store i32 0, ptr %4, align 4
  store i32 1, ptr %9, align 4
  call void @llvm.lifetime.end.p0(i64 8, ptr %15) #8
  br label %186

186:                                              ; preds = %160, %131
  call void @llvm.lifetime.end.p0(i64 8, ptr %14) #8
  br label %187

187:                                              ; preds = %186, %97
  call void @llvm.lifetime.end.p0(i64 8, ptr %13) #8
  call void @llvm.lifetime.end.p0(i64 12, ptr %12) #8
  br label %188

188:                                              ; preds = %187, %76, %54
  call void @llvm.lifetime.end.p0(i64 8, ptr %11) #8
  call void @llvm.lifetime.end.p0(i64 8, ptr %10) #8
  br label %189

189:                                              ; preds = %188, %31
  call void @llvm.lifetime.end.p0(i64 8, ptr %8) #8
  %190 = load i32, ptr %4, align 4
  ret i32 %190
}