; Function Attrs: nounwind uwtable
define range(i32 0, 9) i32 @dt_imageio_open_qoi(ptr noundef %0, ptr noundef %1, ptr noundef %2) local_unnamed_addr #4 {
  %4 = alloca %struct.qoi_desc, align 4
  %5 = tail call noalias ptr @fopen(ptr noundef %1, ptr noundef nonnull @.str)
  %.not = icmp eq ptr %5, null
  br i1 %.not, label %6, label %7

6:                                                ; preds = %3
  tail call void (ptr, ...) @dt_print_ext(ptr noundef nonnull @.str.1, ptr noundef %1) #9
  br label %53

7:                                                ; preds = %3
  %8 = tail call i32 @fseek(ptr noundef nonnull %5, i64 noundef 0, i32 noundef 2)
  %9 = tail call i64 @ftell(ptr noundef nonnull %5)
  tail call void @rewind(ptr noundef nonnull %5)
  %10 = tail call noalias ptr @g_try_malloc(i64 noundef %9) #10
  %.not55 = icmp eq ptr %10, null
  br i1 %.not55, label %11, label %13

11:                                               ; preds = %7
  %12 = tail call i32 @fclose(ptr noundef nonnull %5)
  tail call void (ptr, ...) @dt_print_ext(ptr noundef nonnull @.str.2, ptr noundef %1) #9
  br label %53

13:                                               ; preds = %7
  %14 = tail call i64 @fread(ptr noundef nonnull %10, i64 noundef 1, i64 noundef %9, ptr noundef nonnull %5)
  %.not56 = icmp eq i64 %14, %9
  %15 = tail call i32 @fclose(ptr noundef nonnull %5)
  br i1 %.not56, label %17, label %16

16:                                               ; preds = %13
  tail call void @g_free(ptr noundef nonnull %10) #9
  tail call void (ptr, ...) @dt_print_ext(ptr noundef nonnull @.str.3, i64 noundef %9, ptr noundef %1) #9
  br label %53

17:                                               ; preds = %13
  call void @llvm.lifetime.start.p0(i64 12, ptr nonnull %4) #9
  %18 = trunc i64 %9 to i32
  %19 = call ptr @qoi_decode(ptr noundef nonnull %10, i32 noundef %18, ptr noundef nonnull %4, i32 noundef 4)
  call void @g_free(ptr noundef nonnull %10) #9
  %.not57 = icmp eq ptr %19, null
  br i1 %.not57, label %20, label %21

20:                                               ; preds = %17
  call void (ptr, ...) @dt_print_ext(ptr noundef nonnull @.str.4, ptr noundef %1) #9
  br label %52

21:                                               ; preds = %17
  %22 = load i32, ptr %4, align 4, !tbaa !6
  %23 = getelementptr inbounds nuw i8, ptr %0, i64 1372
  store i32 %22, ptr %23, align 4, !tbaa !16
  %24 = getelementptr inbounds nuw i8, ptr %4, i64 4
  %25 = load i32, ptr %24, align 4, !tbaa !11
  %26 = getelementptr inbounds nuw i8, ptr %0, i64 1376
  store i32 %25, ptr %26, align 16, !tbaa !32
  %27 = getelementptr inbounds nuw i8, ptr %0, i64 1488
  store i32 4, ptr %27, align 16, !tbaa !33
  %28 = getelementptr inbounds nuw i8, ptr %0, i64 1492
  store i32 1, ptr %28, align 4, !tbaa !34
  %29 = call ptr @dt_mipmap_cache_alloc(ptr noundef %2, ptr noundef %0) #9
  %.not58 = icmp eq ptr %29, null
  br i1 %.not58, label %30, label %32

30:                                               ; preds = %21
  call void @free(ptr noundef nonnull %19) #9
  %31 = getelementptr inbounds nuw i8, ptr %0, i64 1116
  call void (ptr, ...) @dt_print_ext(ptr noundef nonnull @.str.5, ptr noundef nonnull %31) #9
  br label %52

32:                                               ; preds = %21
  %33 = load i32, ptr %4, align 4, !tbaa !6
  %34 = zext i32 %33 to i64
  %35 = load i32, ptr %24, align 4, !tbaa !11
  %36 = zext i32 %35 to i64
  %37 = shl nuw nsw i64 %34, 2
  %38 = mul i64 %37, %36
  %.not60 = icmp eq i64 %38, 0
  br i1 %.not60, label %._crit_edge, label %.lr.ph

._crit_edge:                                      ; preds = %.lr.ph, %32
  %39 = getelementptr inbounds nuw i8, ptr %0, i64 1600
  store i32 2, ptr %39, align 16, !tbaa !35
  %40 = getelementptr inbounds nuw i8, ptr %0, i64 1496
  store i32 0, ptr %40, align 8, !tbaa !36
  %41 = getelementptr inbounds nuw i8, ptr %0, i64 1420
  %42 = load i32, ptr %41, align 4, !tbaa !37
  %43 = and i32 %42, -131297
  %44 = or disjoint i32 %43, 32
  store i32 %44, ptr %41, align 4, !tbaa !37
  %45 = getelementptr inbounds nuw i8, ptr %0, i64 1472
  store i32 17, ptr %45, align 16, !tbaa !38
  call void @free(ptr noundef nonnull %19) #9
  br label %52

.lr.ph:                                           ; preds = %32, %.lr.ph
  %.059 = phi i64 [ %51, %.lr.ph ], [ 0, %32 ]
  %46 = getelementptr inbounds nuw i8, ptr %19, i64 %.059
  %47 = load i8, ptr %46, align 1, !tbaa !14
  %48 = uitofp i8 %47 to float
  %49 = fmul reassoc nsz arcp contract afn float %48, 0x3F70101020000000
  %50 = getelementptr inbounds nuw float, ptr %29, i64 %.059
  store float %49, ptr %50, align 4, !tbaa !39
  %51 = add nuw i64 %.059, 1
  %exitcond.not = icmp eq i64 %51, %38
  br i1 %exitcond.not, label %._crit_edge, label %.lr.ph

52:                                               ; preds = %30, %._crit_edge, %20
  %.2 = phi i32 [ 6, %20 ], [ 0, %._crit_edge ], [ 8, %30 ]
  call void @llvm.lifetime.end.p0(i64 12, ptr nonnull %4) #9
  br label %53

53:                                               ; preds = %11, %16, %52, %6
  %.048 = phi i32 [ 1, %6 ], [ 7, %16 ], [ %.2, %52 ], [ 2, %11 ]
  ret i32 %.048
}